; ModuleID = 'source-C-CXX/6/421.c'
source_filename = "source-C-CXX/6/421.c"
target datalayout = "e-m:e-p270:32:32-p271:32:32-p272:64:64-i64:64-f80:128-n8:16:32:64-S128"
target triple = "x86_64-pc-linux-gnu"

@.str = private unnamed_addr constant [7 x i8] c"%s%s%s\00", align 1
@.str.1 = private unnamed_addr constant [3 x i8] c"%s\00", align 1

; Function Attrs: nofree nounwind sspstrong uwtable
define dso_local i32 @main() local_unnamed_addr #0 {
  %1 = alloca [300 x i8], align 16
  %2 = alloca [50 x i8], align 16
  %3 = alloca [50 x i8], align 16
  %4 = alloca [50 x i8], align 16
  %5 = getelementptr inbounds [50 x i8], [50 x i8]* %4, i64 0, i64 0
  %6 = getelementptr inbounds [300 x i8], [300 x i8]* %1, i64 0, i64 0
  call void @llvm.lifetime.start.p0i8(i64 300, i8* nonnull %6) #6
  %7 = getelementptr inbounds [50 x i8], [50 x i8]* %2, i64 0, i64 0
  call void @llvm.lifetime.start.p0i8(i64 50, i8* nonnull %7) #6
  %8 = getelementptr inbounds [50 x i8], [50 x i8]* %3, i64 0, i64 0
  call void @llvm.lifetime.start.p0i8(i64 50, i8* nonnull %8) #6
  %9 = getelementptr inbounds [50 x i8], [50 x i8]* %4, i64 0, i64 0
  call void @llvm.lifetime.start.p0i8(i64 50, i8* nonnull %9) #6
  %10 = call i32 (i8*, ...) @__isoc99_scanf(i8* getelementptr inbounds ([7 x i8], [7 x i8]* @.str, i64 0, i64 0), i8* nonnull %6, i8* nonnull %7, i8* nonnull %8)
  %11 = call i64 @strlen(i8* noundef nonnull %6) #7
  %12 = trunc i64 %11 to i32
  %13 = call i64 @strlen(i8* noundef nonnull %7) #7
  %14 = trunc i64 %13 to i32
  %15 = shl i64 %13, 32
  %16 = ashr exact i64 %15, 32
  %17 = getelementptr inbounds [50 x i8], [50 x i8]* %4, i64 0, i64 %16
  %18 = icmp slt i32 %12, %14
  br i1 %18, label %46, label %19

19:                                               ; preds = %0
  %20 = icmp sgt i32 %14, 0
  br i1 %20, label %24, label %21

21:                                               ; preds = %19
  %22 = add i32 %12, 1
  %23 = sub i32 %22, %14
  br label %39

24:                                               ; preds = %19
  %25 = and i64 %13, 4294967295
  %26 = add i32 %12, 1
  %27 = sub i32 %26, %14
  %28 = zext i32 %27 to i64
  br label %29

29:                                               ; preds = %24, %35
  %30 = phi i64 [ 0, %24 ], [ %37, %35 ]
  %31 = phi i32 [ 0, %24 ], [ %36, %35 ]
  %32 = getelementptr [300 x i8], [300 x i8]* %1, i64 0, i64 %30
  call void @llvm.memcpy.p0i8.p0i8.i64(i8* nonnull align 16 %5, i8* align 1 %32, i64 %25, i1 false)
  store i8 0, i8* %17, align 1, !tbaa !5
  %33 = call i32 @strcmp(i8* noundef nonnull %9, i8* noundef nonnull %7) #7
  %34 = icmp eq i32 %33, 0
  br i1 %34, label %46, label %35

35:                                               ; preds = %29
  %36 = add nuw nsw i32 %31, 1
  %37 = add nuw nsw i64 %30, 1
  %38 = icmp eq i64 %37, %28
  br i1 %38, label %46, label %29, !llvm.loop !8

39:                                               ; preds = %21, %43
  %40 = phi i32 [ %44, %43 ], [ 0, %21 ]
  store i8 0, i8* %17, align 1, !tbaa !5
  %41 = call i32 @strcmp(i8* noundef nonnull %9, i8* noundef nonnull %7) #7
  %42 = icmp eq i32 %41, 0
  br i1 %42, label %46, label %43

43:                                               ; preds = %39
  %44 = add nuw i32 %40, 1
  %45 = icmp eq i32 %44, %23
  br i1 %45, label %46, label %39, !llvm.loop !8

46:                                               ; preds = %43, %39, %35, %29, %0
  %47 = phi i32 [ 0, %0 ], [ %31, %29 ], [ %27, %35 ], [ %40, %39 ], [ %23, %43 ]
  %48 = icmp sgt i32 %12, 0
  br i1 %48, label %49, label %67

49:                                               ; preds = %46
  %50 = add i32 %14, -1
  %51 = add i32 %50, %47
  br label %52

52:                                               ; preds = %49, %63
  %53 = phi i32 [ %65, %63 ], [ 0, %49 ]
  %54 = icmp eq i32 %53, %47
  br i1 %54, label %55, label %57

55:                                               ; preds = %52
  %56 = call i32 (i8*, ...) @printf(i8* nonnull dereferenceable(1) getelementptr inbounds ([3 x i8], [3 x i8]* @.str.1, i64 0, i64 0), i8* nonnull %8)
  br label %63

57:                                               ; preds = %52
  %58 = sext i32 %53 to i64
  %59 = getelementptr inbounds [300 x i8], [300 x i8]* %1, i64 0, i64 %58
  %60 = load i8, i8* %59, align 1, !tbaa !5
  %61 = sext i8 %60 to i32
  %62 = call i32 @putchar(i32 %61)
  br label %63

63:                                               ; preds = %55, %57
  %64 = phi i32 [ %51, %55 ], [ %53, %57 ]
  %65 = add nsw i32 %64, 1
  %66 = icmp slt i32 %65, %12
  br i1 %66, label %52, label %67, !llvm.loop !10

67:                                               ; preds = %63, %46
  call void @llvm.lifetime.end.p0i8(i64 50, i8* nonnull %9) #6
  call void @llvm.lifetime.end.p0i8(i64 50, i8* nonnull %8) #6
  call void @llvm.lifetime.end.p0i8(i64 50, i8* nonnull %7) #6
  call void @llvm.lifetime.end.p0i8(i64 300, i8* nonnull %6) #6
  ret i32 0
}

; Function Attrs: argmemonly mustprogress nofree nosync nounwind willreturn
declare void @llvm.lifetime.start.p0i8(i64 immarg, i8* nocapture) #1

; Function Attrs: nofree nounwind
declare noundef i32 @__isoc99_scanf(i8* nocapture noundef readonly, ...) local_unnamed_addr #2

; Function Attrs: argmemonly mustprogress nofree nounwind readonly willreturn
declare i64 @strlen(i8* nocapture) local_unnamed_addr #3

; Function Attrs: argmemonly mustprogress nofree nounwind readonly willreturn
declare i32 @strcmp(i8* nocapture, i8* nocapture) local_unnamed_addr #3

; Function Attrs: nofree nounwind
declare noundef i32 @printf(i8* nocapture noundef readonly, ...) local_unnamed_addr #2

; Function Attrs: argmemonly mustprogress nofree nosync nounwind willreturn
declare void @llvm.lifetime.end.p0i8(i64 immarg, i8* nocapture) #1

; Function Attrs: nofree nounwind
declare noundef i32 @putchar(i32 noundef) local_unnamed_addr #4

; Function Attrs: argmemonly nofree nounwind willreturn
declare void @llvm.memcpy.p0i8.p0i8.i64(i8* noalias nocapture writeonly, i8* noalias nocapture readonly, i64, i1 immarg) #5


!llvm.module.flags = !{!0, !1, !2, !3}
!llvm.ident = !{!4}

!0 = !{i32 1, !"wchar_size", i32 4}
!1 = !{i32 7, !"PIC Level", i32 2}
!2 = !{i32 7, !"PIE Level", i32 2}
!3 = !{i32 7, !"uwtable", i32 1}
!4 = !{!"clang version 13.0.0"}
!5 = !{!6, !6, i64 0}
!6 = !{!"omnipotent char", !7, i64 0}
!7 = !{!"Simple C/C++ TBAA"}
!8 = distinct !{!8, !9}
!9 = !{!"llvm.loop.mustprogress"}
!10 = distinct !{!10, !9}
